target datalayout = "e-m:e-p270:32:32-p271:32:32-p272:64:64-i64:64-i128:128-f80:128-n8:16:32:64-S128"
target triple = "x86_64-unknown-linux-gnu"

%class.btVector3 = type { [4 x float] }
%class.btQuaternion = type { %class.btQuadWord }
%class.btQuadWord = type { [4 x float] }

; Function Attrs: mustprogress nounwind uwtable
define linkonce_odr dso_local void @_ZN10btQuadWordC2Ev(ptr noundef nonnull align 4 dereferenceable(16) %this) unnamed_addr #1 comdat align 2 {
entry:
  %this.addr = alloca ptr, align 8
  store ptr %this, ptr %this.addr, align 8
  ret void
}

; Function Attrs: mustprogress nounwind uwtable
define linkonce_odr dso_local noundef float @_ZNK9btVector33dotERKS_(ptr noundef nonnull align 4 dereferenceable(16) %this, ptr noundef nonnull align 4 dereferenceable(16) %v) #1 comdat align 2 {
entry:
  %this.addr = alloca ptr, align 8
  %v.addr = alloca ptr, align 8
  store ptr %this, ptr %this.addr, align 8
  store ptr %v, ptr %v.addr, align 8
  %this1 = load ptr, ptr %this.addr, align 8
  %m_floats = getelementptr inbounds %class.btVector3, ptr %this1, i32 0, i32 0
  %arrayidx = getelementptr inbounds [4 x float], ptr %m_floats, i64 0, i64 0
  %0 = load float, ptr %arrayidx, align 4
  %1 = load ptr, ptr %v.addr, align 8
  %m_floats2 = getelementptr inbounds %class.btVector3, ptr %1, i32 0, i32 0
  %arrayidx3 = getelementptr inbounds [4 x float], ptr %m_floats2, i64 0, i64 0
  %2 = load float, ptr %arrayidx3, align 4
  %m_floats4 = getelementptr inbounds %class.btVector3, ptr %this1, i32 0, i32 0
  %arrayidx5 = getelementptr inbounds [4 x float], ptr %m_floats4, i64 0, i64 1
  %3 = load float, ptr %arrayidx5, align 4
  %4 = load ptr, ptr %v.addr, align 8
  %m_floats6 = getelementptr inbounds %class.btVector3, ptr %4, i32 0, i32 0
  %arrayidx7 = getelementptr inbounds [4 x float], ptr %m_floats6, i64 0, i64 1
  %5 = load float, ptr %arrayidx7, align 4
  %mul8 = fmul float %3, %5
  %6 = call float @llvm.fmuladd.f32(float %0, float %2, float %mul8)
  %m_floats9 = getelementptr inbounds %class.btVector3, ptr %this1, i32 0, i32 0
  %arrayidx10 = getelementptr inbounds [4 x float], ptr %m_floats9, i64 0, i64 2
  %7 = load float, ptr %arrayidx10, align 4
  %8 = load ptr, ptr %v.addr, align 8
  %m_floats11 = getelementptr inbounds %class.btVector3, ptr %8, i32 0, i32 0
  %arrayidx12 = getelementptr inbounds [4 x float], ptr %m_floats11, i64 0, i64 2
  %9 = load float, ptr %arrayidx12, align 4
  %10 = call float @llvm.fmuladd.f32(float %7, float %9, float %6)
  ret float %10
}

; Function Attrs: mustprogress uwtable
define linkonce_odr dso_local void @_ZN12btQuaternionC2Ev(ptr noundef nonnull align 4 dereferenceable(16) %this) unnamed_addr #3 comdat align 2 {
entry:
  %this.addr = alloca ptr, align 8
  store ptr %this, ptr %this.addr, align 8
  %this1 = load ptr, ptr %this.addr, align 8
  call void @_ZN10btQuadWordC2Ev(ptr noundef nonnull align 4 dereferenceable(16) %this1)
  ret void
}

; Function Attrs: mustprogress nounwind uwtable
define linkonce_odr dso_local noundef float @_ZNK9btVector37length2Ev(ptr noundef nonnull align 4 dereferenceable(16) %this) #1 comdat align 2 {
entry:
  %this.addr = alloca ptr, align 8
  store ptr %this, ptr %this.addr, align 8
  %this1 = load ptr, ptr %this.addr, align 8
  %call = call noundef float @_ZNK9btVector33dotERKS_(ptr noundef nonnull align 4 dereferenceable(16) %this1, ptr noundef nonnull align 4 dereferenceable(16) %this1)
  ret float %call
}

; Function Attrs: mustprogress uwtable
define dso_local { <2 x float>, <2 x float> } @_ZNK30btKinematicCharacterController11getRotationER9btVector3S1_(ptr noundef nonnull align 8 dereferenceable(319) %this, ptr noundef nonnull align 4 dereferenceable(16) %v0, ptr noundef nonnull align 4 dereferenceable(16) %v1) #2 align 2 {
entry:
  %retval = alloca %class.btQuaternion, align 4
  %this.addr = alloca ptr, align 8
  %v0.addr = alloca ptr, align 8
  %v1.addr = alloca ptr, align 8
  store ptr %this, ptr %this.addr, align 8
  store ptr %v0, ptr %v0.addr, align 8
  store ptr %v1, ptr %v1.addr, align 8
  %0 = load ptr, ptr %v0.addr, align 8
  %call = call noundef float @_ZNK9btVector37length2Ev(ptr noundef nonnull align 4 dereferenceable(16) %0)
  %cmp = fcmp oeq float %call, 0.000000e+00
  br i1 %cmp, label %if.then, label %lor.lhs.false

lor.lhs.false:                                    ; preds = %entry
  %1 = load ptr, ptr %v1.addr, align 8
  %call2 = call noundef float @_ZNK9btVector37length2Ev(ptr noundef nonnull align 4 dereferenceable(16) %1)
  %cmp3 = fcmp oeq float %call2, 0.000000e+00
  br i1 %cmp3, label %if.then, label %if.end

if.then:                                          ; preds = %lor.lhs.false, %entry
  call void @_ZN12btQuaternionC2Ev(ptr noundef nonnull align 4 dereferenceable(16) %retval)
  br label %return

if.end:                                           ; preds = %lor.lhs.false
  %2 = load ptr, ptr %v0.addr, align 8
  %3 = load ptr, ptr %v1.addr, align 8
  %call4 = call { <2 x float>, <2 x float> } @_Z25shortestArcQuatNormalize2R9btVector3S0_(ptr noundef nonnull align 4 dereferenceable(16) %2, ptr noundef nonnull align 4 dereferenceable(16) %3)
  %coerce.dive = getelementptr inbounds %class.btQuaternion, ptr %retval, i32 0, i32 0
  %coerce.dive5 = getelementptr inbounds %class.btQuadWord, ptr %coerce.dive, i32 0, i32 0
  %4 = getelementptr inbounds { <2 x float>, <2 x float> }, ptr %coerce.dive5, i32 0, i32 0
  %5 = extractvalue { <2 x float>, <2 x float> } %call4, 0
  store <2 x float> %5, ptr %4, align 4
  %6 = getelementptr inbounds { <2 x float>, <2 x float> }, ptr %coerce.dive5, i32 0, i32 1
  %7 = extractvalue { <2 x float>, <2 x float> } %call4, 1
  store <2 x float> %7, ptr %6, align 4
  br label %return

return:                                           ; preds = %if.end, %if.then
  %coerce.dive6 = getelementptr inbounds %class.btQuaternion, ptr %retval, i32 0, i32 0
  %coerce.dive7 = getelementptr inbounds %class.btQuadWord, ptr %coerce.dive6, i32 0, i32 0
  %8 = load { <2 x float>, <2 x float> }, ptr %coerce.dive7, align 4
  ret { <2 x float>, <2 x float> } %8
}