; Function Attrs: mustprogress uwtable
define dso_local { <2 x float>, <2 x float> } @_ZNK30btKinematicCharacterController11getRotationER9btVector3S1_(ptr nocapture noundef nonnull readnone align 8 dereferenceable(319) %this, ptr noundef nonnull align 4 dereferenceable(16) %v0, ptr noundef nonnull align 4 dereferenceable(16) %v1) local_unnamed_addr #1 align 2 {
entry:
  %0 = load float, ptr %v0, align 4
  %arrayidx5.i.i = getelementptr inbounds i8, ptr %v0, i64 4
  %1 = load float, ptr %arrayidx5.i.i, align 4
  %mul8.i.i = fmul float %1, %1
  %2 = tail call float @llvm.fmuladd.f32(float %0, float %0, float %mul8.i.i)
  %arrayidx10.i.i = getelementptr inbounds i8, ptr %v0, i64 8
  %3 = load float, ptr %arrayidx10.i.i, align 4
  %4 = tail call noundef float @llvm.fmuladd.f32(float %3, float %3, float %2)
  %cmp = fcmp oeq float %4, 0.000000e+00
  br i1 %cmp, label %return, label %lor.lhs.false

lor.lhs.false:                                    ; preds = %entry
  %5 = load float, ptr %v1, align 4
  %arrayidx5.i.i3 = getelementptr inbounds i8, ptr %v1, i64 4
  %6 = load float, ptr %arrayidx5.i.i3, align 4
  %mul8.i.i4 = fmul float %6, %6
  %7 = tail call float @llvm.fmuladd.f32(float %5, float %5, float %mul8.i.i4)
  %arrayidx10.i.i5 = getelementptr inbounds i8, ptr %v1, i64 8
  %8 = load float, ptr %arrayidx10.i.i5, align 4
  %9 = tail call noundef float @llvm.fmuladd.f32(float %8, float %8, float %7)
  %cmp3 = fcmp oeq float %9, 0.000000e+00
  br i1 %cmp3, label %return, label %if.end

if.end:                                           ; preds = %lor.lhs.false
  %call4 = tail call { <2 x float>, <2 x float> } @_Z25shortestArcQuatNormalize2R9btVector3S0_(ptr noundef nonnull align 4 dereferenceable(16) %v0, ptr noundef nonnull align 4 dereferenceable(16) %v1)
  %10 = extractvalue { <2 x float>, <2 x float> } %call4, 0
  %11 = extractvalue { <2 x float>, <2 x float> } %call4, 1
  br label %return

return:                                           ; preds = %entry, %lor.lhs.false, %if.end
  %retval.sroa.2.0 = phi <2 x float> [ %11, %if.end ], [ undef, %lor.lhs.false ], [ undef, %entry ]
  %retval.sroa.0.0 = phi <2 x float> [ %10, %if.end ], [ undef, %lor.lhs.false ], [ undef, %entry ]
  %.fca.0.insert = insertvalue { <2 x float>, <2 x float> } poison, <2 x float> %retval.sroa.0.0, 0
  %.fca.1.insert = insertvalue { <2 x float>, <2 x float> } %.fca.0.insert, <2 x float> %retval.sroa.2.0, 1
  ret { <2 x float>, <2 x float> } %.fca.1.insert
}